Certificate:
    Data:
        Version: 3 (0x2)
        Serial Number: 268435669 (0x100000d5)
        Signature Algorithm: sha256WithRSAEncryption
        Issuer: C=DE, ST=Hessen, O=privacyidea, CN=CA001
        Validity
            Not Before: Jan 27 14:09:06 2021 GMT
            Not After : Jan 27 14:09:06 2022 GMT
        Subject: OU=realm1, CN=cornelius/emailAddress=user@localhost.localdomain
        Subject Public Key Info:
            Public Key Algorithm: rsaEncryption
                RSA Public-Key: (2048 bit)
                Modulus:
                    00:fb:d7:78:6c:15:78:34:a4:b1:27:e8:5e:64:3e:
                    34:f5:d0:e5:99:70:0b:53:fc:bb:62:12:09:35:a2:
                    c9:30:d1:1c:07:42:33:13:a0:5b:da:c8:ec:76:6e:
                    89:7e:ac:07:ea:a1:29:db:dd:3e:47:cb:92:7b:2f:
                    49:8f:60:f9:e0:5c:b3:b9:ac:b4:77:28:1a:ff:b9:
                    28:58:53:80:9c:04:17:72:17:8b:6d:78:e2:68:b9:
                    86:36:f5:a6:40:8d:32:d3:17:7a:ff:66:e7:91:16:
                    f2:2f:97:cc:33:dd:f9:b6:30:74:ba:ba:77:5f:65:
                    e3:04:e1:54:54:f2:76:9d:bb:02:e4:26:84:a2:2c:
                    d8:25:81:59:57:fa:7b:94:1c:c0:39:6d:85:2e:fd:
                    f0:c4:fd:d5:23:ca:0c:79:42:39:49:20:ac:13:87:
                    52:45:35:cb:4f:a5:44:b6:dd:32:55:9e:88:e6:77:
                    3f:40:36:2e:f2:14:e6:72:94:50:7d:33:82:5a:b6:
                    d4:bc:4c:68:e4:59:2b:81:da:08:4a:fa:8b:53:13:
                    c5:bb:e3:c2:32:81:60:6a:06:0e:5c:93:ba:5c:33:
                    12:18:2c:8c:24:51:1d:d9:9f:37:1f:21:c2:d6:22:
                    8a:5a:11:cd:d6:2a:7d:e5:e3:38:c0:34:c6:ff:78:
                    1c:ed
                Exponent: 65537 (0x10001)
        X509v3 extensions:
            X509v3 Key Usage: 
                Digital Signature, Key Encipherment
            X509v3 Basic Constraints: 
                CA:FALSE
            Netscape Cert Type: 
                SSL Server
            Netscape Comment: 
                OpenSSL Generated Server Certificate
            X509v3 Subject Key Identifier: 
                34:3F:19:5F:16:66:60:AF:8D:A2:D2:37:89:EF:22:A9:D0:14:45:E4
            X509v3 Authority Key Identifier: 
                keyid:F4:A7:C0:CC:91:46:AF:64:F3:91:F2:27:F8:C8:B2:6F:8A:87:32:73
                DirName:/C=DE/ST=Hessen/O=privacyidea/CN=CA001
                serial:FB:C8:EB:AC:83:CD:12:07

            X509v3 Extended Key Usage: 
                TLS Web Server Authentication
    Signature Algorithm: sha256WithRSAEncryption
         a3:a3:76:af:1f:f4:e8:6f:c5:62:a5:16:d2:5f:27:a3:89:8a:
         f2:fc:59:39:77:b4:c4:97:88:6d:56:4b:26:4d:59:69:3c:59:
         cb:f9:be:83:1f:1b:4e:03:01:d8:d7:fb:29:0d:cc:06:11:87:
         d2:a8:5d:8c:3f:23:26:12:55:24:b8:fa:0c:3b:0a:f2:35:4a:
         26:1e:c6:64:f1:36:76:1a:3d:84:05:23:5a:ec:4b:0e:9c:a2:
         7d:4b:a9:b4:14:19:99:10:d7:1c:e4:bb:88:e9:95:4d:a4:93:
         37:b2:3c:c0:66:88:93:06:ca:49:48:b8:ca:52:d2:96:4e:cf:
         6f:13:ab:93:bd:7e:8b:56:b1:18:20:21:71:4e:33:cb:fd:00:
         13:63:6d:3b:3e:e2:9f:77:ce:59:64:e3:4d:ba:c2:88:4a:60:
         c8:1a:26:3d:7a:cc:79:6d:d4:7d:5f:57:1d:b9:47:67:0e:88:
         0f:23:8a:11:f3:1e:d0:b3:1b:ea:ff:d4:dc:e0:09:c5:a1:54:
         b3:d3:93:05:a5:54:29:e9:87:2f:4d:84:e9:bc:a6:cb:f7:38:
         34:10:59:50:ee:9e:3a:04:e2:75:33:4b:9a:13:7a:89:7f:b6:
         5e:39:6d:82:5a:84:11:4e:9c:77:f9:1c:16:da:1a:d7:50:70:
         53:ae:4a:ac
-----BEGIN CERTIFICATE-----
MIIEIjCCAwqgAwIBAgIEEAAA1TANBgkqhkiG9w0BAQsFADBEMQswCQYDVQQGEwJE
RTEPMA0GA1UECAwGSGVzc2VuMRQwEgYDVQQKDAtwcml2YWN5aWRlYTEOMAwGA1UE
AwwFQ0EwMDEwHhcNMjEwMTI3MTQwOTA2WhcNMjIwMTI3MTQwOTA2WjBQMQ8wDQYD
VQQLDAZyZWFsbTExEjAQBgNVBAMMCWNvcm5lbGl1czEpMCcGCSqGSIb3DQEJARYa
dXNlckBsb2NhbGhvc3QubG9jYWxkb21haW4wggEiMA0GCSqGSIb3DQEBAQUAA4IB
DwAwggEKAoIBAQD713hsFXg0pLEn6F5kPjT10OWZcAtT/LtiEgk1oskw0RwHQjMT
oFvayOx2bol+rAfqoSnb3T5Hy5J7L0mPYPngXLO5rLR3KBr/uShYU4CcBBdyF4tt
eOJouYY29aZAjTLTF3r/ZueRFvIvl8wz3fm2MHS6undfZeME4VRU8naduwLkJoSi
LNglgVlX+nuUHMA5bYUu/fDE/dUjygx5QjlJIKwTh1JFNctPpUS23TJVnojmdz9A
Ni7yFOZylFB9M4JattS8TGjkWSuB2ghK+otTE8W748IygWBqBg5ck7pcMxIYLIwk
UR3ZnzcfIcLWIopaEc3WKn3l4zjANMb/eBztAgMBAAGjggEOMIIBCjALBgNVHQ8E
BAMCBaAwCQYDVR0TBAIwADARBglghkgBhvhCAQEEBAMCBkAwMwYJYIZIAYb4QgEN
BCYWJE9wZW5TU0wgR2VuZXJhdGVkIFNlcnZlciBDZXJ0aWZpY2F0ZTAdBgNVHQ4E
FgQUND8ZXxZmYK+NotI3ie8iqdAUReQwdAYDVR0jBG0wa4AU9KfAzJFGr2TzkfIn
+Miyb4qHMnOhSKRGMEQxCzAJBgNVBAYTAkRFMQ8wDQYDVQQIDAZIZXNzZW4xFDAS
BgNVBAoMC3ByaXZhY3lpZGVhMQ4wDAYDVQQDDAVDQTAwMYIJAPvI66yDzRIHMBMG
A1UdJQQMMAoGCCsGAQUFBwMBMA0GCSqGSIb3DQEBCwUAA4IBAQCjo3avH/Tob8Vi
pRbSXyejiYry/Fk5d7TEl4htVksmTVlpPFnL+b6DHxtOAwHY1/spDcwGEYfSqF2M
PyMmElUkuPoMOwryNUomHsZk8TZ2Gj2EBSNa7EsOnKJ9S6m0FBmZENcc5LuI6ZVN
pJM3sjzAZoiTBspJSLjKUtKWTs9vE6uTvX6LVrEYICFxTjPL/QATY207PuKfd85Z
ZONNusKISmDIGiY9esx5bdR9X1cduUdnDogPI4oR8x7Qsxvq/9Tc4AnFoVSz05MF
pVQp6YcvTYTpvKbL9zg0EFlQ7p46BOJ1M0uaE3qJf7ZeOW2CWoQRTpx3+RwW2hrX
UHBTrkqs
-----END CERTIFICATE-----
