Certificate:
    Data:
        Version: 3 (0x2)
        Serial Number: 268435670 (0x100000d6)
        Signature Algorithm: sha256WithRSAEncryption
        Issuer: C=DE, ST=Hessen, O=privacyidea, CN=CA001
        Validity
            Not Before: Jan 27 14:10:57 2021 GMT
            Not After : Jan 27 14:10:57 2022 GMT
        Subject: CN=selfservice,CN=user,O=realm1/emailAddress=meine
        Subject Public Key Info:
            Public Key Algorithm: rsaEncryption
                RSA Public-Key: (2048 bit)
                Modulus:
                    00:cf:3c:d4:33:0e:12:c4:e6:da:cd:b6:56:a1:1c:
                    26:bb:26:1c:8a:4a:73:a8:58:8a:b6:1e:b3:8b:99:
                    d2:1d:07:c2:92:89:79:c0:69:d8:c8:df:28:61:98:
                    1e:b3:fe:ae:2b:bd:78:a9:f7:6e:47:dc:a3:a0:16:
                    8c:85:02:c1:4e:92:fd:72:6e:f0:c8:03:29:9b:b8:
                    00:6e:c0:83:95:c8:34:20:36:9c:b3:e5:e4:e6:76:
                    73:a3:1a:ad:40:96:e0:53:54:00:ec:76:79:9a:c6:
                    0d:7e:b6:bd:29:ec:83:f3:cb:89:a4:cb:6c:00:ba:
                    0c:c5:78:0f:ff:69:b8:94:f4:04:70:43:3f:d8:9e:
                    d7:a7:fb:5d:ce:75:8e:da:e7:c4:07:b1:9d:de:6f:
                    88:4b:b6:4d:9a:cf:f9:bc:fa:9f:cd:32:6d:f6:3a:
                    0b:0d:23:42:78:ec:97:42:bf:0e:4d:60:56:e1:d3:
                    02:f2:19:cb:84:57:90:e5:70:a1:a2:83:35:86:e2:
                    da:86:9f:f9:8a:c4:79:b3:52:28:da:cb:bb:34:ca:
                    d3:da:91:4a:cf:8d:76:a2:b2:6b:9b:f9:96:fd:09:
                    2a:da:11:23:4d:f0:cb:d6:b2:b1:0e:12:6c:9a:19:
                    65:98:87:ca:e4:ee:24:ce:44:ac:90:8f:9d:1b:c5:
                    2a:9d
                Exponent: 65537 (0x10001)
        X509v3 extensions:
            X509v3 Key Usage: 
                Digital Signature, Key Encipherment
            X509v3 Basic Constraints: 
                CA:FALSE
            Netscape Cert Type: 
                SSL Server
            Netscape Comment: 
                OpenSSL Generated Server Certificate
            X509v3 Subject Key Identifier: 
                4D:07:90:AD:FF:1D:0D:E7:1A:DD:D6:2E:FA:BA:34:CB:AA:1F:24:C6
            X509v3 Authority Key Identifier: 
                keyid:F4:A7:C0:CC:91:46:AF:64:F3:91:F2:27:F8:C8:B2:6F:8A:87:32:73
                DirName:/C=DE/ST=Hessen/O=privacyidea/CN=CA001
                serial:FB:C8:EB:AC:83:CD:12:07

            X509v3 Extended Key Usage: 
                TLS Web Server Authentication
    Signature Algorithm: sha256WithRSAEncryption
         9d:63:a9:34:b0:03:af:f3:8a:15:f3:6b:01:3a:8d:e9:19:82:
         7c:cf:f9:07:48:74:50:d6:fc:c6:f7:3e:9b:78:15:a7:f2:ef:
         cc:d6:6b:18:6e:99:b4:c3:04:37:33:78:6c:fb:d1:81:3c:b4:
         4b:16:93:ec:2a:40:58:c9:e5:95:ea:30:5c:22:82:4f:a9:a2:
         cd:c1:2e:8f:fb:62:02:08:32:82:4d:7f:49:f9:17:57:b0:66:
         e4:4c:92:be:37:3f:7e:54:55:fc:d6:c3:04:5d:d7:d6:03:a9:
         3d:2e:c9:37:a2:7c:9c:1c:99:fd:59:88:11:a8:2a:d5:91:23:
         18:75:ce:5e:47:a6:78:71:96:a0:d0:75:43:27:25:1d:89:e1:
         00:17:cc:32:8e:7b:b0:e5:5c:69:c0:d7:bd:af:d6:5a:47:d2:
         d7:0d:66:f1:e7:31:d4:59:54:b0:de:d4:96:0b:97:3e:6d:bb:
         75:e4:3b:ed:43:b1:d8:d9:95:da:5c:fc:5a:58:74:b2:89:8b:
         c6:2d:80:ab:49:70:70:ad:70:9d:43:b1:c8:08:cf:7e:e0:18:
         e1:70:87:33:8d:92:5b:49:c4:41:31:c9:55:50:32:36:07:d9:
         b2:2d:4a:a5:37:4a:ee:6a:0a:46:42:cf:b0:09:23:95:e8:41:
         b6:65:9f:7c
-----BEGIN CERTIFICATE-----
MIIEDzCCAvegAwIBAgIEEAAA1jANBgkqhkiG9w0BAQsFADBEMQswCQYDVQQGEwJE
RTEPMA0GA1UECAwGSGVzc2VuMRQwEgYDVQQKDAtwcml2YWN5aWRlYTEOMAwGA1UE
AwwFQ0EwMDEwHhcNMjEwMTI3MTQxMDU3WhcNMjIwMTI3MTQxMDU3WjA9MSUwIwYD
VQQDDBxzZWxmc2VydmljZSxDTj11c2VyLE89cmVhbG0xMRQwEgYJKoZIhvcNAQkB
FgVtZWluZTCCASIwDQYJKoZIhvcNAQEBBQADggEPADCCAQoCggEBAM881DMOEsTm
2s22VqEcJrsmHIpKc6hYirYes4uZ0h0HwpKJecBp2MjfKGGYHrP+riu9eKn3bkfc
o6AWjIUCwU6S/XJu8MgDKZu4AG7Ag5XINCA2nLPl5OZ2c6MarUCW4FNUAOx2eZrG
DX62vSnsg/PLiaTLbAC6DMV4D/9puJT0BHBDP9ie16f7Xc51jtrnxAexnd5viEu2
TZrP+bz6n80ybfY6Cw0jQnjsl0K/Dk1gVuHTAvIZy4RXkOVwoaKDNYbi2oaf+YrE
ebNSKNrLuzTK09qRSs+NdqKya5v5lv0JKtoRI03wy9aysQ4SbJoZZZiHyuTuJM5E
rJCPnRvFKp0CAwEAAaOCAQ4wggEKMAsGA1UdDwQEAwIFoDAJBgNVHRMEAjAAMBEG
CWCGSAGG+EIBAQQEAwIGQDAzBglghkgBhvhCAQ0EJhYkT3BlblNTTCBHZW5lcmF0
ZWQgU2VydmVyIENlcnRpZmljYXRlMB0GA1UdDgQWBBRNB5Ct/x0N5xrd1i76ujTL
qh8kxjB0BgNVHSMEbTBrgBT0p8DMkUavZPOR8if4yLJviocyc6FIpEYwRDELMAkG
A1UEBhMCREUxDzANBgNVBAgMBkhlc3NlbjEUMBIGA1UECgwLcHJpdmFjeWlkZWEx
DjAMBgNVBAMMBUNBMDAxggkA+8jrrIPNEgcwEwYDVR0lBAwwCgYIKwYBBQUHAwEw
DQYJKoZIhvcNAQELBQADggEBAJ1jqTSwA6/zihXzawE6jekZgnzP+QdIdFDW/Mb3
Ppt4Fafy78zWaxhumbTDBDczeGz70YE8tEsWk+wqQFjJ5ZXqMFwigk+pos3BLo/7
YgIIMoJNf0n5F1ewZuRMkr43P35UVfzWwwRd19YDqT0uyTeifJwcmf1ZiBGoKtWR
Ixh1zl5HpnhxlqDQdUMnJR2J4QAXzDKOe7DlXGnA172v1lpH0tcNZvHnMdRZVLDe
1JYLlz5tu3XkO+1DsdjZldpc/FpYdLKJi8YtgKtJcHCtcJ1DscgIz37gGOFwhzON
kltJxEExyVVQMjYH2bItSqU3Su5qCkZCz7AJI5XoQbZln3w=
-----END CERTIFICATE-----
