Certificate:
    Data:
        Version: 3 (0x2)
        Serial Number: 268435668 (0x100000d4)
        Signature Algorithm: sha256WithRSAEncryption
        Issuer: C=DE, ST=Hessen, O=privacyidea, CN=CA001
        Validity
            Not Before: Jan 27 14:09:06 2021 GMT
            Not After : Jan 27 14:09:06 2022 GMT
        Subject: CN=cn=cornelius
        Subject Public Key Info:
            Public Key Algorithm: rsaEncryption
                RSA Public-Key: (2048 bit)
                Modulus:
                    00:ce:a4:39:30:25:73:e4:9d:e6:37:3b:85:59:83:
                    ef:a3:6e:f9:83:b9:f7:48:b0:0b:d5:e8:05:40:61:
                    cd:c5:5a:bc:11:2f:5b:4e:d0:4f:b8:d0:e8:7f:05:
                    ab:ad:24:0b:90:d4:3f:60:ec:15:b6:4e:be:8e:d9:
                    26:ab:f2:2f:7f:35:c2:a6:a1:bc:52:3a:d9:88:fb:
                    b3:fa:71:20:b9:51:0e:f8:af:0d:16:be:bd:5d:b9:
                    ab:30:d5:ac:6b:3c:bc:ee:28:4a:4f:6f:d4:09:15:
                    f7:98:af:77:db:36:15:2e:1e:ee:0f:d0:d9:60:ad:
                    db:b9:c4:3f:c6:25:32:f9:e3:e9:50:b8:ec:84:a0:
                    c4:d2:9c:fd:ce:25:80:85:7e:3a:ad:4c:a7:40:1b:
                    0a:58:18:9f:c2:5e:36:e1:d1:44:e9:46:b6:dc:b4:
                    28:a2:ec:ed:02:f7:25:79:e1:86:8e:69:67:52:ee:
                    82:21:b7:84:2d:cc:e7:a8:39:57:7d:a3:1e:e9:50:
                    63:77:29:ab:e4:a5:ff:dc:ee:4c:4b:5e:08:2b:62:
                    08:2d:75:b8:26:6c:93:eb:f5:45:ea:cd:83:58:53:
                    15:46:e6:6b:43:c1:2f:d9:88:4b:3d:d5:fd:0c:ff:
                    51:52:ed:54:fb:27:2d:59:ef:4c:50:ce:71:cd:eb:
                    5a:99
                Exponent: 65537 (0x10001)
        X509v3 extensions:
            X509v3 Key Usage: 
                Digital Signature, Key Encipherment
            X509v3 Basic Constraints: 
                CA:FALSE
            Netscape Cert Type: 
                SSL Server
            Netscape Comment: 
                OpenSSL Generated Server Certificate
            X509v3 Subject Key Identifier: 
                0E:D5:BA:4E:7D:92:57:15:FD:61:4E:34:5B:E9:62:D0:20:1C:7D:08
            X509v3 Authority Key Identifier: 
                keyid:F4:A7:C0:CC:91:46:AF:64:F3:91:F2:27:F8:C8:B2:6F:8A:87:32:73
                DirName:/C=DE/ST=Hessen/O=privacyidea/CN=CA001
                serial:FB:C8:EB:AC:83:CD:12:07

            X509v3 Extended Key Usage: 
                TLS Web Server Authentication
    Signature Algorithm: sha256WithRSAEncryption
         4d:fe:34:c3:e2:86:17:4d:ac:85:b3:df:29:fd:93:d4:19:aa:
         38:22:2e:7e:d6:d3:5e:7c:fa:34:76:04:28:0b:a8:83:fd:33:
         c2:b8:47:cb:a4:e1:e2:1b:0c:a7:56:9e:75:09:9e:79:7b:65:
         0f:01:49:93:47:ae:14:1c:15:28:c7:0d:19:0c:0a:8a:ff:24:
         ea:a5:60:e3:a8:9b:ae:b2:6b:2e:96:40:94:07:01:f9:83:aa:
         16:c5:e6:e7:1a:2f:a4:f0:6b:ce:91:f7:ec:ac:a7:15:08:8f:
         1e:46:6f:d8:1f:8a:f1:61:02:df:3e:7e:1e:88:e8:e1:af:81:
         c3:8f:88:f0:2c:d3:06:7b:89:f2:72:97:bb:d5:39:6f:1b:fb:
         d6:a7:80:81:ce:00:c3:cd:02:df:3a:f1:e1:22:e5:ed:c8:93:
         24:d0:9e:d5:02:e2:df:a9:60:93:66:ee:d3:2a:31:a2:0d:64:
         44:17:8f:33:40:89:0d:b2:c7:81:e9:b6:6e:e1:58:6c:36:57:
         b1:db:f5:b1:8d:8d:9b:63:a3:fd:4b:5f:54:72:4b:58:9f:42:
         33:ad:52:15:90:ea:fc:8c:30:c9:71:55:d5:01:1a:ce:6b:bc:
         fc:c6:96:9a:95:25:e5:f0:55:8e:a5:9a:e7:d1:96:15:b7:fb:
         db:cb:c9:99
-----BEGIN CERTIFICATE-----
MIID6TCCAtGgAwIBAgIEEAAA1DANBgkqhkiG9w0BAQsFADBEMQswCQYDVQQGEwJE
RTEPMA0GA1UECAwGSGVzc2VuMRQwEgYDVQQKDAtwcml2YWN5aWRlYTEOMAwGA1UE
AwwFQ0EwMDEwHhcNMjEwMTI3MTQwOTA2WhcNMjIwMTI3MTQwOTA2WjAXMRUwEwYD
VQQDDAxjbj1jb3JuZWxpdXMwggEiMA0GCSqGSIb3DQEBAQUAA4IBDwAwggEKAoIB
AQDOpDkwJXPkneY3O4VZg++jbvmDufdIsAvV6AVAYc3FWrwRL1tO0E+40Oh/Baut
JAuQ1D9g7BW2Tr6O2Sar8i9/NcKmobxSOtmI+7P6cSC5UQ74rw0Wvr1duasw1axr
PLzuKEpPb9QJFfeYr3fbNhUuHu4P0Nlgrdu5xD/GJTL54+lQuOyEoMTSnP3OJYCF
fjqtTKdAGwpYGJ/CXjbh0UTpRrbctCii7O0C9yV54YaOaWdS7oIht4QtzOeoOVd9
ox7pUGN3Kavkpf/c7kxLXggrYggtdbgmbJPr9UXqzYNYUxVG5mtDwS/ZiEs91f0M
/1FS7VT7Jy1Z70xQznHN61qZAgMBAAGjggEOMIIBCjALBgNVHQ8EBAMCBaAwCQYD
VR0TBAIwADARBglghkgBhvhCAQEEBAMCBkAwMwYJYIZIAYb4QgENBCYWJE9wZW5T
U0wgR2VuZXJhdGVkIFNlcnZlciBDZXJ0aWZpY2F0ZTAdBgNVHQ4EFgQUDtW6Tn2S
VxX9YU40W+li0CAcfQgwdAYDVR0jBG0wa4AU9KfAzJFGr2TzkfIn+Miyb4qHMnOh
SKRGMEQxCzAJBgNVBAYTAkRFMQ8wDQYDVQQIDAZIZXNzZW4xFDASBgNVBAoMC3By
aXZhY3lpZGVhMQ4wDAYDVQQDDAVDQTAwMYIJAPvI66yDzRIHMBMGA1UdJQQMMAoG
CCsGAQUFBwMBMA0GCSqGSIb3DQEBCwUAA4IBAQBN/jTD4oYXTayFs98p/ZPUGao4
Ii5+1tNefPo0dgQoC6iD/TPCuEfLpOHiGwynVp51CZ55e2UPAUmTR64UHBUoxw0Z
DAqK/yTqpWDjqJuusmsulkCUBwH5g6oWxebnGi+k8GvOkffsrKcVCI8eRm/YH4rx
YQLfPn4eiOjhr4HDj4jwLNMGe4nycpe71TlvG/vWp4CBzgDDzQLfOvHhIuXtyJMk
0J7VAuLfqWCTZu7TKjGiDWREF48zQIkNsseB6bZu4VhsNlex2/WxjY2bY6P9S19U
cktYn0IzrVIVkOr8jDDJcVXVARrOa7z8xpaalSXl8FWOpZrn0ZYVt/vby8mZ
-----END CERTIFICATE-----
