Certificate:
    Data:
        Version: 3 (0x2)
        Serial Number: 268435667 (0x100000d3)
        Signature Algorithm: sha256WithRSAEncryption
        Issuer: C=DE, ST=Hessen, O=privacyidea, CN=CA001
        Validity
            Not Before: Jan 27 14:09:06 2021 GMT
            Not After : Jan 27 14:09:06 2022 GMT
        Subject: C=DE, ST=Hessen, O=privacyidea, CN=requester.localdomain
        Subject Public Key Info:
            Public Key Algorithm: rsaEncryption
                RSA Public-Key: (2048 bit)
                Modulus:
                    00:cd:be:14:4f:fa:ce:01:3f:42:22:1b:1d:9c:af:
                    dd:92:d2:7f:db:6c:b7:3e:39:43:43:6b:13:03:f1:
                    05:f4:07:74:bc:76:69:28:0b:af:19:8e:d7:fc:e3:
                    cd:c6:58:f2:ca:7f:08:6d:53:fc:07:02:44:24:c6:
                    b4:34:4c:8c:04:fe:33:0e:40:e2:20:ba:02:73:5a:
                    f7:f5:4f:63:6e:cc:c6:b6:df:54:1d:37:39:7d:51:
                    36:26:5f:bd:dc:3f:a8:8b:6b:a2:ae:b6:9d:d6:21:
                    e7:df:41:b8:7a:28:2a:68:48:ca:a8:2d:ed:e1:e9:
                    46:5e:5a:72:6d:b4:84:38:87:91:fd:94:11:0b:28:
                    84:c6:c2:2f:2a:fb:01:f9:36:7a:09:75:d1:33:88:
                    3c:73:41:5b:c8:bf:94:89:70:a1:f0:c0:b9:2e:50:
                    53:1e:b1:17:64:69:f4:2d:81:e0:a9:0d:0e:32:e9:
                    ba:55:8a:85:f1:1b:6f:49:79:b4:7f:88:c3:0d:3e:
                    54:88:9b:3d:1f:38:8c:04:f3:ee:6a:63:2b:f5:c6:
                    db:b4:83:aa:c4:78:41:3a:7d:4b:e1:c8:3e:71:ca:
                    1b:61:59:ea:c6:c4:ca:32:5e:c9:e9:bf:12:29:e6:
                    c6:c3:63:fe:a0:55:da:7a:f1:60:98:4d:26:ed:fa:
                    70:2d
                Exponent: 65537 (0x10001)
        X509v3 extensions:
            X509v3 Key Usage: 
                Digital Signature, Key Encipherment
            X509v3 Basic Constraints: 
                CA:FALSE
            Netscape Cert Type: 
                SSL Server
            Netscape Comment: 
                OpenSSL Generated Server Certificate
            X509v3 Subject Key Identifier: 
                53:3F:ED:5D:09:07:B3:65:7B:AB:45:C9:24:5B:09:77:80:0A:96:ED
            X509v3 Authority Key Identifier: 
                keyid:F4:A7:C0:CC:91:46:AF:64:F3:91:F2:27:F8:C8:B2:6F:8A:87:32:73
                DirName:/C=DE/ST=Hessen/O=privacyidea/CN=CA001
                serial:FB:C8:EB:AC:83:CD:12:07

            X509v3 Extended Key Usage: 
                TLS Web Server Authentication
    Signature Algorithm: sha256WithRSAEncryption
         16:2c:b8:69:93:18:04:1a:ee:2c:96:43:15:cc:2c:06:58:e5:
         f0:b0:c3:d3:1f:d1:c6:eb:04:82:9a:54:e4:42:ee:05:89:3f:
         0c:83:10:c3:fb:cd:6a:05:42:50:96:7b:0d:a2:60:78:82:30:
         5c:2d:19:1a:d3:59:ea:3a:ec:a9:bc:f6:3f:22:ba:7d:27:28:
         b9:2f:7c:85:73:89:5f:5d:2f:76:ca:e5:93:11:b3:12:90:a5:
         cb:58:06:67:7a:9d:9c:a1:18:c7:dc:22:44:5a:9d:1d:3a:93:
         06:9c:f2:cf:5b:cf:46:4e:fd:e0:11:c3:d3:d5:f8:c4:ef:12:
         16:0e:06:a6:51:99:13:35:6d:dd:d6:d8:11:4b:d7:7d:7e:1a:
         90:bc:a1:39:cf:ed:71:e9:24:1f:09:18:d6:ac:af:5c:23:f6:
         15:6e:42:f5:59:df:aa:6f:f5:3c:b9:be:78:06:33:0c:af:f1:
         b8:3e:ec:fc:75:c3:bd:05:35:02:ee:2b:d2:3e:c3:65:d5:16:
         69:83:25:87:d7:8b:96:98:b7:13:d4:b4:07:0a:eb:c8:b0:15:
         6a:31:c2:90:e4:16:e0:56:f7:48:7b:73:67:fb:21:33:40:77:
         8f:c2:72:09:01:24:78:85:9a:b4:5d:32:bd:f4:c2:f5:b8:d9:
         48:3e:cd:e0
-----BEGIN CERTIFICATE-----
MIIEJjCCAw6gAwIBAgIEEAAA0zANBgkqhkiG9w0BAQsFADBEMQswCQYDVQQGEwJE
RTEPMA0GA1UECAwGSGVzc2VuMRQwEgYDVQQKDAtwcml2YWN5aWRlYTEOMAwGA1UE
AwwFQ0EwMDEwHhcNMjEwMTI3MTQwOTA2WhcNMjIwMTI3MTQwOTA2WjBUMQswCQYD
VQQGEwJERTEPMA0GA1UECAwGSGVzc2VuMRQwEgYDVQQKDAtwcml2YWN5aWRlYTEe
MBwGA1UEAwwVcmVxdWVzdGVyLmxvY2FsZG9tYWluMIIBIjANBgkqhkiG9w0BAQEF
AAOCAQ8AMIIBCgKCAQEAzb4UT/rOAT9CIhsdnK/dktJ/22y3PjlDQ2sTA/EF9Ad0
vHZpKAuvGY7X/OPNxljyyn8IbVP8BwJEJMa0NEyMBP4zDkDiILoCc1r39U9jbszG
tt9UHTc5fVE2Jl+93D+oi2uirrad1iHn30G4eigqaEjKqC3t4elGXlpybbSEOIeR
/ZQRCyiExsIvKvsB+TZ6CXXRM4g8c0FbyL+UiXCh8MC5LlBTHrEXZGn0LYHgqQ0O
Mum6VYqF8RtvSXm0f4jDDT5UiJs9HziMBPPuamMr9cbbtIOqxHhBOn1L4cg+ccob
YVnqxsTKMl7J6b8SKebGw2P+oFXaevFgmE0m7fpwLQIDAQABo4IBDjCCAQowCwYD
VR0PBAQDAgWgMAkGA1UdEwQCMAAwEQYJYIZIAYb4QgEBBAQDAgZAMDMGCWCGSAGG
+EIBDQQmFiRPcGVuU1NMIEdlbmVyYXRlZCBTZXJ2ZXIgQ2VydGlmaWNhdGUwHQYD
VR0OBBYEFFM/7V0JB7Nle6tFySRbCXeACpbtMHQGA1UdIwRtMGuAFPSnwMyRRq9k
85HyJ/jIsm+KhzJzoUikRjBEMQswCQYDVQQGEwJERTEPMA0GA1UECAwGSGVzc2Vu
MRQwEgYDVQQKDAtwcml2YWN5aWRlYTEOMAwGA1UEAwwFQ0EwMDGCCQD7yOusg80S
BzATBgNVHSUEDDAKBggrBgEFBQcDATANBgkqhkiG9w0BAQsFAAOCAQEAFiy4aZMY
BBruLJZDFcwsBljl8LDD0x/RxusEgppU5ELuBYk/DIMQw/vNagVCUJZ7DaJgeIIw
XC0ZGtNZ6jrsqbz2PyK6fScouS98hXOJX10vdsrlkxGzEpCly1gGZ3qdnKEYx9wi
RFqdHTqTBpzyz1vPRk794BHD09X4xO8SFg4GplGZEzVt3dbYEUvXfX4akLyhOc/t
cekkHwkY1qyvXCP2FW5C9Vnfqm/1PLm+eAYzDK/xuD7s/HXDvQU1Au4r0j7DZdUW
aYMlh9eLlpi3E9S0BwrryLAVajHCkOQW4Fb3SHtzZ/shM0B3j8JyCQEkeIWatF0y
vfTC9bjZSD7N4A==
-----END CERTIFICATE-----
